; Function Attrs: mustprogress uwtable
define void @_ZN5Ipopt11DenseVector18ElementWiseMaxImplERKNS_6VectorE(ptr nocapture noundef nonnull align 8 dereferenceable(248) %0, ptr nocapture noundef nonnull readonly align 8 dereferenceable(205) %1) unnamed_addr #0 align 2 {
  %3 = getelementptr inbounds i8, ptr %1, i64 216
  %4 = load ptr, ptr %3, align 8
  %5 = getelementptr inbounds i8, ptr %0, i64 56
  %6 = load ptr, ptr %5, align 8
  %7 = getelementptr inbounds i8, ptr %6, i64 12
  %8 = load i32, ptr %7, align 4
  %9 = icmp eq i32 %8, 0
  br i1 %9, label %.loopexit, label %10

10:                                               ; preds = %2
  %11 = getelementptr inbounds i8, ptr %0, i64 233
  %12 = load i8, ptr %11, align 1
  %13 = and i8 %12, 1
  %.not = icmp eq i8 %13, 0
  %14 = getelementptr inbounds i8, ptr %1, i64 233
  %15 = load i8, ptr %14, align 1
  %16 = and i8 %15, 1
  %.not24 = icmp eq i8 %16, 0
  br i1 %.not, label %53, label %17

17:                                               ; preds = %10
  br i1 %.not24, label %24, label %18

18:                                               ; preds = %17
  %19 = getelementptr inbounds i8, ptr %0, i64 240
  %20 = load double, ptr %19, align 8
  %21 = getelementptr inbounds i8, ptr %1, i64 240
  %22 = load double, ptr %21, align 8
  %23 = fcmp olt double %20, %22
  %.sroa.speculated.i = select i1 %23, double %22, double %20
  store double %.sroa.speculated.i, ptr %19, align 8
  br label %.loopexit

24:                                               ; preds = %17
  store i8 0, ptr %11, align 1
  %25 = getelementptr inbounds i8, ptr %0, i64 216
  %26 = load ptr, ptr %25, align 8
  %27 = icmp eq ptr %26, null
  br i1 %27, label %28, label %_ZN5Ipopt11DenseVector16values_allocatedEv.exit

28:                                               ; preds = %24
  %29 = getelementptr inbounds i8, ptr %0, i64 208
  %30 = load ptr, ptr %29, align 8
  %31 = getelementptr inbounds i8, ptr %30, i64 12
  %32 = load i32, ptr %31, align 4
  %33 = icmp sgt i32 %32, 0
  br i1 %33, label %34, label %_ZNK5Ipopt16DenseVectorSpace23AllocateInternalStorageEv.exit.i

34:                                               ; preds = %28
  %35 = zext nneg i32 %32 to i64
  %36 = shl nuw nsw i64 %35, 3
  %37 = tail call noalias noundef nonnull ptr @_Znam(i64 noundef %36) #18
  br label %_ZNK5Ipopt16DenseVectorSpace23AllocateInternalStorageEv.exit.i

_ZNK5Ipopt16DenseVectorSpace23AllocateInternalStorageEv.exit.i: ; preds = %34, %28
  %.0.i.i = phi ptr [ %37, %34 ], [ null, %28 ]
  store ptr %.0.i.i, ptr %25, align 8
  br label %_ZN5Ipopt11DenseVector16values_allocatedEv.exit

_ZN5Ipopt11DenseVector16values_allocatedEv.exit:  ; preds = %24, %_ZNK5Ipopt16DenseVectorSpace23AllocateInternalStorageEv.exit.i
  %38 = phi ptr [ %.0.i.i, %_ZNK5Ipopt16DenseVectorSpace23AllocateInternalStorageEv.exit.i ], [ %26, %24 ]
  %39 = load i32, ptr %7, align 4
  %40 = icmp sgt i32 %39, 0
  br i1 %40, label %.lr.ph, label %.loopexit

.lr.ph:                                           ; preds = %_ZN5Ipopt11DenseVector16values_allocatedEv.exit
  %41 = getelementptr inbounds i8, ptr %0, i64 240
  br label %42

42:                                               ; preds = %.lr.ph, %42
  %indvars.iv = phi i64 [ 0, %.lr.ph ], [ %indvars.iv.next, %42 ]
  %43 = load double, ptr %41, align 8
  %44 = getelementptr inbounds double, ptr %4, i64 %indvars.iv
  %45 = load double, ptr %44, align 8
  %46 = fcmp olt double %43, %45
  %.sroa.speculated.i26 = select i1 %46, double %45, double %43
  %47 = getelementptr inbounds double, ptr %38, i64 %indvars.iv
  store double %.sroa.speculated.i26, ptr %47, align 8
  %indvars.iv.next = add nuw nsw i64 %indvars.iv, 1
  %48 = load ptr, ptr %5, align 8
  %49 = getelementptr inbounds i8, ptr %48, i64 12
  %50 = load i32, ptr %49, align 4
  %51 = sext i32 %50 to i64
  %52 = icmp slt i64 %indvars.iv.next, %51
  br i1 %52, label %42, label %.loopexit, !llvm.loop !17

53:                                               ; preds = %10
  %54 = icmp sgt i32 %8, 0
  br i1 %.not24, label %.preheader, label %.preheader29

.preheader29:                                     ; preds = %53
  br i1 %54, label %.lr.ph34, label %.loopexit

.lr.ph34:                                         ; preds = %.preheader29
  %55 = getelementptr inbounds i8, ptr %0, i64 216
  %56 = getelementptr inbounds i8, ptr %1, i64 240
  br label %58

.preheader:                                       ; preds = %53
  br i1 %54, label %.lr.ph36, label %.loopexit

.lr.ph36:                                         ; preds = %.preheader
  %57 = getelementptr inbounds i8, ptr %0, i64 216
  br label %69

58:                                               ; preds = %.lr.ph34, %58
  %indvars.iv40 = phi i64 [ 0, %.lr.ph34 ], [ %indvars.iv.next41, %58 ]
  %59 = load ptr, ptr %55, align 8
  %60 = getelementptr inbounds double, ptr %59, i64 %indvars.iv40
  %61 = load double, ptr %60, align 8
  %62 = load double, ptr %56, align 8
  %63 = fcmp olt double %61, %62
  %.sroa.speculated.i27 = select i1 %63, double %62, double %61
  store double %.sroa.speculated.i27, ptr %60, align 8
  %indvars.iv.next41 = add nuw nsw i64 %indvars.iv40, 1
  %64 = load ptr, ptr %5, align 8
  %65 = getelementptr inbounds i8, ptr %64, i64 12
  %66 = load i32, ptr %65, align 4
  %67 = sext i32 %66 to i64
  %68 = icmp slt i64 %indvars.iv.next41, %67
  br i1 %68, label %58, label %.loopexit, !llvm.loop !18

69:                                               ; preds = %.lr.ph36, %69
  %indvars.iv43 = phi i64 [ 0, %.lr.ph36 ], [ %indvars.iv.next44, %69 ]
  %70 = load ptr, ptr %57, align 8
  %71 = getelementptr inbounds double, ptr %70, i64 %indvars.iv43
  %72 = load double, ptr %71, align 8
  %73 = getelementptr inbounds double, ptr %4, i64 %indvars.iv43
  %74 = load double, ptr %73, align 8
  %75 = fcmp olt double %72, %74
  %.sroa.speculated.i28 = select i1 %75, double %74, double %72
  store double %.sroa.speculated.i28, ptr %71, align 8
  %indvars.iv.next44 = add nuw nsw i64 %indvars.iv43, 1
  %76 = load ptr, ptr %5, align 8
  %77 = getelementptr inbounds i8, ptr %76, i64 12
  %78 = load i32, ptr %77, align 4
  %79 = sext i32 %78 to i64
  %80 = icmp slt i64 %indvars.iv.next44, %79
  br i1 %80, label %69, label %.loopexit, !llvm.loop !19

.loopexit:                                        ; preds = %42, %58, %69, %_ZN5Ipopt11DenseVector16values_allocatedEv.exit, %.preheader29, %.preheader, %18, %2
  ret void
}